; Function Attrs: nounwind uwtable
define ptr @l_Std_Time_Week_Ordinal_ofNat(ptr noundef %0, ptr noundef readnone captures(none) %1) local_unnamed_addr #0 {
  %3 = ptrtoint ptr %0 to i64
  %4 = and i64 %3, 1
  %.not.i = icmp eq i64 %4, 0
  %5 = icmp ult ptr %0, inttoptr (i64 4294967296 to ptr)
  %or.cond.i = or i1 %5, %.not.i
  br i1 %or.cond.i, label %lean_nat_to_int.exit, label %6

6:                                                ; preds = %2
  %7 = lshr i64 %3, 1
  %8 = tail call ptr @lean_big_size_t_to_int(i64 noundef %7) #5
  br label %lean_nat_to_int.exit

lean_nat_to_int.exit:                             ; preds = %2, %6
  %.1.i = phi ptr [ %8, %6 ], [ %0, %2 ]
  ret ptr %.1.i
}